target datalayout = "e-m:e-p270:32:32-p271:32:32-p272:64:64-i64:64-i128:128-f80:128-n8:16:32:64-S128"
target triple = "x86_64-pc-linux-gnu"

%struct.AVChannelLayout = type { i32, i32, %union.anon, ptr }
%union.anon = type { i64 }
%struct.AVCodecContext = type { ptr, i32, i32, ptr, i32, i32, ptr, ptr, ptr, i64, i32, i32, ptr, i32, %struct.AVRational, %struct.AVRational, %struct.AVRational, i32, i32, i32, i32, i32, %struct.AVRational, i32, i32, i32, i32, i32, i32, i32, i32, i32, i32, i32, ptr, ptr, i32, float, float, float, float, float, float, float, float, float, i32, i32, i32, i32, i32, i32, i32, i32, i32, i32, i32, i32, ptr, ptr, ptr, i32, i32, i32, i32, i32, i32, i32, i32, i32, i32, %struct.AVChannelLayout, i32, i32, i32, i32, i32, i32, i32, i32, ptr, i32, i32, i32, float, float, i32, i32, i32, i32, i32, ptr, i64, i64, float, float, i32, i32, ptr, ptr, i32, i32, i32, i32, i32, ptr, ptr, ptr, ptr, i32, i32, [8 x i64], i32, i32, i32, i32, i32, i32, i32, ptr, ptr, i32, i32, i32, i32, i32, i32, i32, i32, i32, i32, ptr, ptr, i32, i32, ptr, ptr, ptr, ptr, i32, i32, i64, i32, i32, i64, ptr, i64, ptr, i32, ptr, i32 }
%struct.AVRational = type { i32, i32 }
%struct.NellyMoserEncodeContext = type { ptr, i32, ptr, ptr, ptr, %struct.AudioFrameQueue, [8 x i8], [256 x float], [256 x float], [384 x float], ptr, ptr }
%struct.AudioFrameQueue = type { ptr, i32, i32, ptr, i32, i32 }

@encode_init.init_static_once = internal global i32 0, align 4
@.str.3 = private unnamed_addr constant [76 x i8] c"Nellymoser works only with 8000, 16000, 11025, 22050 and 44100 sample rate\0A\00", align 1

; Function Attrs: cold nounwind optsize uwtable
define internal i32 @encode_init(ptr noundef %0) #0 {
  %2 = alloca i32, align 4
  %3 = alloca ptr, align 8
  %4 = alloca ptr, align 8
  %5 = alloca float, align 4
  %6 = alloca i32, align 4
  %7 = alloca i32, align 4
  store ptr %0, ptr %3, align 8, !tbaa !4
  call void @llvm.lifetime.start.p0(i64 8, ptr %4) #10
  %8 = load ptr, ptr %3, align 8, !tbaa !4
  %9 = getelementptr inbounds nuw %struct.AVCodecContext, ptr %8, i32 0, i32 6
  %10 = load ptr, ptr %9, align 8, !tbaa !9
  store ptr %10, ptr %4, align 8, !tbaa !29
  call void @llvm.lifetime.start.p0(i64 4, ptr %5) #10
  store float 3.276800e+04, ptr %5, align 4, !tbaa !31
  call void @llvm.lifetime.start.p0(i64 4, ptr %6) #10
  %11 = load ptr, ptr %3, align 8, !tbaa !4
  %12 = getelementptr inbounds nuw %struct.AVCodecContext, ptr %11, i32 0, i32 69
  %13 = load i32, ptr %12, align 8, !tbaa !32
  %14 = icmp ne i32 %13, 8000
  br i1 %14, label %15, label %42

15:                                               ; preds = %1
  %16 = load ptr, ptr %3, align 8, !tbaa !4
  %17 = getelementptr inbounds nuw %struct.AVCodecContext, ptr %16, i32 0, i32 69
  %18 = load i32, ptr %17, align 8, !tbaa !32
  %19 = icmp ne i32 %18, 16000
  br i1 %19, label %20, label %42

20:                                               ; preds = %15
  %21 = load ptr, ptr %3, align 8, !tbaa !4
  %22 = getelementptr inbounds nuw %struct.AVCodecContext, ptr %21, i32 0, i32 69
  %23 = load i32, ptr %22, align 8, !tbaa !32
  %24 = icmp ne i32 %23, 11025
  br i1 %24, label %25, label %42

25:                                               ; preds = %20
  %26 = load ptr, ptr %3, align 8, !tbaa !4
  %27 = getelementptr inbounds nuw %struct.AVCodecContext, ptr %26, i32 0, i32 69
  %28 = load i32, ptr %27, align 8, !tbaa !32
  %29 = icmp ne i32 %28, 22050
  br i1 %29, label %30, label %42

30:                                               ; preds = %25
  %31 = load ptr, ptr %3, align 8, !tbaa !4
  %32 = getelementptr inbounds nuw %struct.AVCodecContext, ptr %31, i32 0, i32 69
  %33 = load i32, ptr %32, align 8, !tbaa !32
  %34 = icmp ne i32 %33, 44100
  br i1 %34, label %35, label %42

35:                                               ; preds = %30
  %36 = load ptr, ptr %3, align 8, !tbaa !4
  %37 = getelementptr inbounds nuw %struct.AVCodecContext, ptr %36, i32 0, i32 101
  %38 = load i32, ptr %37, align 4, !tbaa !33
  %39 = icmp sge i32 %38, 0
  br i1 %39, label %40, label %42

40:                                               ; preds = %35
  %41 = load ptr, ptr %3, align 8, !tbaa !4
  call void (ptr, i32, ptr, ...) @av_log(ptr noundef %41, i32 noundef 16, ptr noundef @.str.3)
  store i32 -22, ptr %2, align 4
  store i32 1, ptr %7, align 4
  br label %101

42:                                               ; preds = %35, %30, %25, %20, %15, %1
  %43 = load ptr, ptr %3, align 8, !tbaa !4
  %44 = getelementptr inbounds nuw %struct.AVCodecContext, ptr %43, i32 0, i32 72
  store i32 256, ptr %44, align 8, !tbaa !34
  %45 = load ptr, ptr %3, align 8, !tbaa !4
  %46 = getelementptr inbounds nuw %struct.AVCodecContext, ptr %45, i32 0, i32 77
  store i32 128, ptr %46, align 4, !tbaa !35
  %47 = load ptr, ptr %3, align 8, !tbaa !4
  %48 = load ptr, ptr %4, align 8, !tbaa !29
  %49 = getelementptr inbounds nuw %struct.NellyMoserEncodeContext, ptr %48, i32 0, i32 5
  call void @ff_af_queue_init(ptr noundef %47, ptr noundef %49)
  %50 = load ptr, ptr %3, align 8, !tbaa !4
  %51 = load ptr, ptr %4, align 8, !tbaa !29
  %52 = getelementptr inbounds nuw %struct.NellyMoserEncodeContext, ptr %51, i32 0, i32 0
  store ptr %50, ptr %52, align 16, !tbaa !36
  %53 = load ptr, ptr %4, align 8, !tbaa !29
  %54 = getelementptr inbounds nuw %struct.NellyMoserEncodeContext, ptr %53, i32 0, i32 3
  %55 = load ptr, ptr %4, align 8, !tbaa !29
  %56 = getelementptr inbounds nuw %struct.NellyMoserEncodeContext, ptr %55, i32 0, i32 4
  %57 = call i32 @av_tx_init(ptr noundef %54, ptr noundef %56, i32 noundef 1, i32 noundef 0, i32 noundef 128, ptr noundef %5, i64 noundef 0)
  store i32 %57, ptr %6, align 4, !tbaa !43
  %58 = icmp slt i32 %57, 0
  br i1 %58, label %59, label %61

59:                                               ; preds = %42
  %60 = load i32, ptr %6, align 4, !tbaa !43
  store i32 %60, ptr %2, align 4
  store i32 1, ptr %7, align 4
  br label %101

61:                                               ; preds = %42
  %62 = load ptr, ptr %3, align 8, !tbaa !4
  %63 = getelementptr inbounds nuw %struct.AVCodecContext, ptr %62, i32 0, i32 10
  %64 = load i32, ptr %63, align 8, !tbaa !44
  %65 = and i32 %64, 8388608
  %66 = call ptr @avpriv_float_dsp_alloc(i32 noundef %65)
  %67 = load ptr, ptr %4, align 8, !tbaa !29
  %68 = getelementptr inbounds nuw %struct.NellyMoserEncodeContext, ptr %67, i32 0, i32 2
  store ptr %66, ptr %68, align 16, !tbaa !45
  %69 = load ptr, ptr %4, align 8, !tbaa !29
  %70 = getelementptr inbounds nuw %struct.NellyMoserEncodeContext, ptr %69, i32 0, i32 2
  %71 = load ptr, ptr %70, align 16, !tbaa !45
  %72 = icmp ne ptr %71, null
  br i1 %72, label %74, label %73

73:                                               ; preds = %61
  store i32 -12, ptr %2, align 4
  store i32 1, ptr %7, align 4
  br label %101

74:                                               ; preds = %61
  %75 = load ptr, ptr %4, align 8, !tbaa !29
  %76 = getelementptr inbounds nuw %struct.NellyMoserEncodeContext, ptr %75, i32 0, i32 0
  %77 = load ptr, ptr %76, align 16, !tbaa !36
  %78 = getelementptr inbounds nuw %struct.AVCodecContext, ptr %77, i32 0, i32 97
  %79 = load i32, ptr %78, align 4, !tbaa !46
  %80 = icmp ne i32 %79, 0
  br i1 %80, label %81, label %99

81:                                               ; preds = %74
  %82 = call noalias ptr @av_malloc(i64 noundef 3290656)
  %83 = load ptr, ptr %4, align 8, !tbaa !29
  %84 = getelementptr inbounds nuw %struct.NellyMoserEncodeContext, ptr %83, i32 0, i32 10
  store ptr %82, ptr %84, align 16, !tbaa !47
  %85 = call noalias ptr @av_malloc(i64 noundef 822664)
  %86 = load ptr, ptr %4, align 8, !tbaa !29
  %87 = getelementptr inbounds nuw %struct.NellyMoserEncodeContext, ptr %86, i32 0, i32 11
  store ptr %85, ptr %87, align 8, !tbaa !48
  %88 = load ptr, ptr %4, align 8, !tbaa !29
  %89 = getelementptr inbounds nuw %struct.NellyMoserEncodeContext, ptr %88, i32 0, i32 10
  %90 = load ptr, ptr %89, align 16, !tbaa !47
  %91 = icmp ne ptr %90, null
  br i1 %91, label %92, label %97

92:                                               ; preds = %81
  %93 = load ptr, ptr %4, align 8, !tbaa !29
  %94 = getelementptr inbounds nuw %struct.NellyMoserEncodeContext, ptr %93, i32 0, i32 11
  %95 = load ptr, ptr %94, align 8, !tbaa !48
  %96 = icmp ne ptr %95, null
  br i1 %96, label %98, label %97

97:                                               ; preds = %92, %81
  store i32 -12, ptr %2, align 4
  store i32 1, ptr %7, align 4
  br label %101

98:                                               ; preds = %92
  br label %99

99:                                               ; preds = %98, %74
  %100 = call i32 @pthread_once(ptr noundef @encode_init.init_static_once, ptr noundef @nellymoser_init_static)
  store i32 0, ptr %2, align 4
  store i32 1, ptr %7, align 4
  br label %101

101:                                              ; preds = %99, %97, %73, %59, %40
  call void @llvm.lifetime.end.p0(i64 4, ptr %6) #10
  call void @llvm.lifetime.end.p0(i64 4, ptr %5) #10
  call void @llvm.lifetime.end.p0(i64 8, ptr %4) #10
  %102 = load i32, ptr %2, align 4
  ret i32 %102
}