; Function Attrs: cold nounwind optsize uwtable
define internal range(i32 -2147483648, 1) i32 @encode_init(ptr noundef %0) #0 {
  %2 = alloca float, align 4
  %3 = getelementptr inbounds nuw i8, ptr %0, i64 32
  %4 = load ptr, ptr %3, align 8, !tbaa !4
  call void @llvm.lifetime.start.p0(i64 4, ptr nonnull %2) #9
  store float 3.276800e+04, ptr %2, align 4, !tbaa !27
  %5 = getelementptr inbounds nuw i8, ptr %0, i64 344
  %6 = load i32, ptr %5, align 8, !tbaa !28
  switch i32 %6, label %7 [
    i32 8000, label %12
    i32 16000, label %12
    i32 11025, label %12
    i32 22050, label %12
    i32 44100, label %12
  ]

7:                                                ; preds = %1
  %8 = getelementptr inbounds nuw i8, ptr %0, i64 516
  %9 = load i32, ptr %8, align 4, !tbaa !29
  %10 = icmp sgt i32 %9, -1
  br i1 %10, label %11, label %12

11:                                               ; preds = %7
  tail call void (ptr, i32, ptr, ...) @av_log(ptr noundef nonnull %0, i32 noundef 16, ptr noundef nonnull @.str.3) #9
  br label %38

12:                                               ; preds = %1, %1, %1, %1, %1, %7
  %13 = getelementptr inbounds nuw i8, ptr %0, i64 376
  store i32 256, ptr %13, align 8, !tbaa !30
  %14 = getelementptr inbounds nuw i8, ptr %0, i64 396
  store i32 128, ptr %14, align 4, !tbaa !31
  %15 = getelementptr inbounds nuw i8, ptr %4, i64 40
  tail call void @ff_af_queue_init(ptr noundef nonnull %0, ptr noundef nonnull %15) #9
  store ptr %0, ptr %4, align 16, !tbaa !32
  %16 = getelementptr inbounds nuw i8, ptr %4, i64 24
  %17 = getelementptr inbounds nuw i8, ptr %4, i64 32
  %18 = call i32 @av_tx_init(ptr noundef nonnull %16, ptr noundef nonnull %17, i32 noundef 1, i32 noundef 0, i32 noundef 128, ptr noundef nonnull %2, i64 noundef 0) #9
  %19 = icmp slt i32 %18, 0
  br i1 %19, label %38, label %20

20:                                               ; preds = %12
  %21 = getelementptr inbounds nuw i8, ptr %0, i64 64
  %22 = load i32, ptr %21, align 8, !tbaa !40
  %23 = and i32 %22, 8388608
  %24 = call ptr @avpriv_float_dsp_alloc(i32 noundef %23) #9
  %25 = getelementptr inbounds nuw i8, ptr %4, i64 16
  store ptr %24, ptr %25, align 16, !tbaa !41
  %.not31 = icmp eq ptr %24, null
  br i1 %.not31, label %38, label %26

26:                                               ; preds = %20
  %27 = load ptr, ptr %4, align 16, !tbaa !32
  %28 = getelementptr inbounds nuw i8, ptr %27, i64 492
  %29 = load i32, ptr %28, align 4, !tbaa !42
  %.not32 = icmp eq i32 %29, 0
  br i1 %.not32, label %36, label %30

30:                                               ; preds = %26
  %31 = call noalias ptr @av_malloc(i64 noundef 3290656) #9
  %32 = getelementptr inbounds nuw i8, ptr %4, i64 3664
  store ptr %31, ptr %32, align 16, !tbaa !43
  %33 = call noalias ptr @av_malloc(i64 noundef 822664) #9
  %34 = getelementptr inbounds nuw i8, ptr %4, i64 3672
  store ptr %33, ptr %34, align 8, !tbaa !44
  %35 = load ptr, ptr %32, align 16, !tbaa !43
  %.not33 = icmp eq ptr %35, null
  %.not34 = icmp eq ptr %33, null
  %or.cond = select i1 %.not33, i1 true, i1 %.not34
  br i1 %or.cond, label %38, label %36

36:                                               ; preds = %30, %26
  %37 = call i32 @pthread_once(ptr noundef nonnull @encode_init.init_static_once, ptr noundef nonnull @nellymoser_init_static) #9
  br label %38

38:                                               ; preds = %30, %20, %12, %36, %11
  %.0 = phi i32 [ -22, %11 ], [ 0, %36 ], [ %18, %12 ], [ -12, %20 ], [ -12, %30 ]
  call void @llvm.lifetime.end.p0(i64 4, ptr nonnull %2) #9
  ret i32 %.0
}